target datalayout = "e-m:e-p270:32:32-p271:32:32-p272:64:64-i64:64-i128:128-f80:128-n8:16:32:64-S128"
target triple = "x86_64-pc-linux-gnu"

; Function Attrs: mustprogress nounwind uwtable
define noundef signext i8 @_ZN6icu_7712PatternProps12isWhiteSpaceEi(i32 noundef %0) #0 align 2 {
  %2 = alloca i8, align 1
  %3 = alloca i32, align 4
  store i32 %0, ptr %3, align 4, !tbaa !3
  %4 = load i32, ptr %3, align 4, !tbaa !3
  %5 = icmp slt i32 %4, 0
  br i1 %5, label %6, label %7

6:                                                ; preds = %1
  store i8 0, ptr %2, align 1
  br label %35

7:                                                ; preds = %1
  %8 = load i32, ptr %3, align 4, !tbaa !3
  %9 = icmp sle i32 %8, 255
  br i1 %9, label %10, label %19

10:                                               ; preds = %7
  %11 = load i32, ptr %3, align 4, !tbaa !3
  %12 = sext i32 %11 to i64
  %13 = getelementptr inbounds [256 x i8], ptr @_ZN6icu_77L6latin1E, i64 0, i64 %12
  %14 = load i8, ptr %13, align 1, !tbaa !7
  %15 = zext i8 %14 to i32
  %16 = ashr i32 %15, 2
  %17 = and i32 %16, 1
  %18 = trunc i32 %17 to i8
  store i8 %18, ptr %2, align 1
  br label %35

19:                                               ; preds = %7
  %20 = load i32, ptr %3, align 4, !tbaa !3
  %21 = icmp sle i32 8206, %20
  br i1 %21, label %22, label %34

22:                                               ; preds = %19
  %23 = load i32, ptr %3, align 4, !tbaa !3
  %24 = icmp sle i32 %23, 8233
  br i1 %24, label %25, label %34

25:                                               ; preds = %22
  %26 = load i32, ptr %3, align 4, !tbaa !3
  %27 = icmp sle i32 %26, 8207
  br i1 %27, label %31, label %28

28:                                               ; preds = %25
  %29 = load i32, ptr %3, align 4, !tbaa !3
  %30 = icmp sle i32 8232, %29
  br label %31

31:                                               ; preds = %28, %25
  %32 = phi i1 [ true, %25 ], [ %30, %28 ]
  %33 = zext i1 %32 to i8
  store i8 %33, ptr %2, align 1
  br label %35

34:                                               ; preds = %22, %19
  store i8 0, ptr %2, align 1
  br label %35

35:                                               ; preds = %34, %31, %10, %6
  %36 = load i8, ptr %2, align 1
  ret i8 %36
}

; Function Attrs: mustprogress nounwind uwtable
define noundef ptr @_ZN6icu_7712PatternProps14skipWhiteSpaceEPKDsi(ptr noundef %0, i32 noundef %1) #0 align 2 {
  %3 = alloca ptr, align 8
  %4 = alloca i32, align 4
  store ptr %0, ptr %3, align 8, !tbaa !8
  store i32 %1, ptr %4, align 4, !tbaa !3
  br label %5

5:                                                ; preds = %16, %2
  %6 = load i32, ptr %4, align 4, !tbaa !3
  %7 = icmp sgt i32 %6, 0
  br i1 %7, label %8, label %14

8:                                                ; preds = %5
  %9 = load ptr, ptr %3, align 8, !tbaa !8
  %10 = load i16, ptr %9, align 2, !tbaa !11
  %11 = zext i16 %10 to i32
  %12 = call noundef signext i8 @_ZN6icu_7712PatternProps12isWhiteSpaceEi(i32 noundef %11)
  %13 = icmp ne i8 %12, 0
  br label %14

14:                                               ; preds = %8, %5
  %15 = phi i1 [ false, %5 ], [ %13, %8 ]
  br i1 %15, label %16, label %21

16:                                               ; preds = %14
  %17 = load ptr, ptr %3, align 8, !tbaa !8
  %18 = getelementptr inbounds nuw i16, ptr %17, i32 1
  store ptr %18, ptr %3, align 8, !tbaa !8
  %19 = load i32, ptr %4, align 4, !tbaa !3
  %20 = add nsw i32 %19, -1
  store i32 %20, ptr %4, align 4, !tbaa !3
  br label %5, !llvm.loop !13

21:                                               ; preds = %14
  %22 = load ptr, ptr %3, align 8, !tbaa !8
  ret ptr %22
}