; Function Attrs: mustprogress nofree norecurse nosync nounwind willreturn memory(argmem: read) uwtable
define noundef ptr @_ZN6icu_7712PatternProps14skipWhiteSpaceEPKDsi(ptr noundef readonly %0, i32 noundef %1) local_unnamed_addr #1 align 2 {
  %3 = icmp sgt i32 %1, 0
  br i1 %3, label %.lr.ph, label %.critedge

.lr.ph:                                           ; preds = %2, %16
  %.08 = phi i32 [ %18, %16 ], [ %1, %2 ]
  %.047 = phi ptr [ %17, %16 ], [ %0, %2 ]
  %4 = load i16, ptr %.047, align 2, !tbaa !8
  %5 = icmp ult i16 %4, 256
  br i1 %5, label %6, label %12

6:                                                ; preds = %.lr.ph
  %7 = zext nneg i16 %4 to i64
  %8 = getelementptr inbounds nuw [256 x i8], ptr @_ZN6icu_77L6latin1E, i64 0, i64 %7
  %9 = load i8, ptr %8, align 1, !tbaa !3
  %10 = and i8 %9, 4
  %11 = icmp eq i8 %10, 0
  br i1 %11, label %.critedge, label %16

12:                                               ; preds = %.lr.ph
  %13 = add i16 %4, -8234
  %or.cond.i = icmp ult i16 %13, -28
  %14 = add nsw i16 %4, -8208
  %15 = icmp ult i16 %14, 24
  %or.cond = select i1 %or.cond.i, i1 true, i1 %15
  br i1 %or.cond, label %.critedge, label %16

16:                                               ; preds = %12, %6
  %17 = getelementptr inbounds nuw i8, ptr %.047, i64 2
  %18 = add nsw i32 %.08, -1
  %19 = icmp sgt i32 %.08, 1
  br i1 %19, label %.lr.ph, label %.critedge, !llvm.loop !10

.critedge:                                        ; preds = %16, %12, %6, %2
  %.04.lcssa = phi ptr [ %0, %2 ], [ %.047, %6 ], [ %.047, %12 ], [ %17, %16 ]
  ret ptr %.04.lcssa
}